target datalayout = "e-m:e-p270:32:32-p271:32:32-p272:64:64-i64:64-i128:128-f80:128-n8:16:32:64-S128"
target triple = "x86_64-pc-linux-gnu"

; Function Attrs: mustprogress uwtable
define noundef signext i8 @_ZN6icu_7710GreekUpper23isFollowedByCasedLetterEPKDsii(ptr noundef %0, i32 noundef %1, i32 noundef %2) #0 {
  %4 = alloca i8, align 1
  %5 = alloca ptr, align 8
  %6 = alloca i32, align 4
  %7 = alloca i32, align 4
  %8 = alloca i32, align 4
  %9 = alloca i16, align 2
  %10 = alloca i32, align 4
  %11 = alloca i32, align 4
  store ptr %0, ptr %5, align 8, !tbaa !10
  store i32 %1, ptr %6, align 4, !tbaa !3
  store i32 %2, ptr %7, align 4, !tbaa !3
  br label %12

12:                                               ; preds = %68, %3
  %13 = load i32, ptr %6, align 4, !tbaa !3
  %14 = load i32, ptr %7, align 4, !tbaa !3
  %15 = icmp slt i32 %13, %14
  br i1 %15, label %16, label %69

16:                                               ; preds = %12
  call void @llvm.lifetime.start.p0(i64 4, ptr %8) #9
  br label %17

17:                                               ; preds = %16
  %18 = load ptr, ptr %5, align 8, !tbaa !10
  %19 = load i32, ptr %6, align 4, !tbaa !3
  %20 = add nsw i32 %19, 1
  store i32 %20, ptr %6, align 4, !tbaa !3
  %21 = sext i32 %19 to i64
  %22 = getelementptr inbounds i16, ptr %18, i64 %21
  %23 = load i16, ptr %22, align 2, !tbaa !24
  %24 = zext i16 %23 to i32
  store i32 %24, ptr %8, align 4, !tbaa !3
  %25 = load i32, ptr %8, align 4, !tbaa !3
  %26 = and i32 %25, -1024
  %27 = icmp eq i32 %26, 55296
  br i1 %27, label %28, label %51

28:                                               ; preds = %17
  call void @llvm.lifetime.start.p0(i64 2, ptr %9) #9
  %29 = load i32, ptr %6, align 4, !tbaa !3
  %30 = load i32, ptr %7, align 4, !tbaa !3
  %31 = icmp ne i32 %29, %30
  br i1 %31, label %32, label %50

32:                                               ; preds = %28
  %33 = load ptr, ptr %5, align 8, !tbaa !10
  %34 = load i32, ptr %6, align 4, !tbaa !3
  %35 = sext i32 %34 to i64
  %36 = getelementptr inbounds i16, ptr %33, i64 %35
  %37 = load i16, ptr %36, align 2, !tbaa !24
  store i16 %37, ptr %9, align 2, !tbaa !26
  %38 = zext i16 %37 to i32
  %39 = and i32 %38, -1024
  %40 = icmp eq i32 %39, 56320
  br i1 %40, label %41, label %50

41:                                               ; preds = %32
  %42 = load i32, ptr %6, align 4, !tbaa !3
  %43 = add nsw i32 %42, 1
  store i32 %43, ptr %6, align 4, !tbaa !3
  %44 = load i32, ptr %8, align 4, !tbaa !3
  %45 = shl i32 %44, 10
  %46 = load i16, ptr %9, align 2, !tbaa !26
  %47 = zext i16 %46 to i32
  %48 = add nsw i32 %45, %47
  %49 = sub nsw i32 %48, 56613888
  store i32 %49, ptr %8, align 4, !tbaa !3
  br label %50

50:                                               ; preds = %41, %32, %28
  call void @llvm.lifetime.end.p0(i64 2, ptr %9) #9
  br label %51

51:                                               ; preds = %50, %17
  br label %52

52:                                               ; preds = %51
  br label %53

53:                                               ; preds = %52
  call void @llvm.lifetime.start.p0(i64 4, ptr %10) #9
  %54 = load i32, ptr %8, align 4, !tbaa !3
  %55 = call i32 @ucase_getTypeOrIgnorable_77(i32 noundef %54)
  store i32 %55, ptr %10, align 4, !tbaa !3
  %56 = load i32, ptr %10, align 4, !tbaa !3
  %57 = and i32 %56, 4
  %58 = icmp ne i32 %57, 0
  br i1 %58, label %59, label %60

59:                                               ; preds = %53
  br label %65

60:                                               ; preds = %53
  %61 = load i32, ptr %10, align 4, !tbaa !3
  %62 = icmp ne i32 %61, 0
  br i1 %62, label %63, label %64

63:                                               ; preds = %60
  store i8 1, ptr %4, align 1
  store i32 1, ptr %11, align 4
  br label %66

64:                                               ; preds = %60
  store i8 0, ptr %4, align 1
  store i32 1, ptr %11, align 4
  br label %66

65:                                               ; preds = %59
  store i32 0, ptr %11, align 4
  br label %66

66:                                               ; preds = %65, %64, %63
  call void @llvm.lifetime.end.p0(i64 4, ptr %10) #9
  call void @llvm.lifetime.end.p0(i64 4, ptr %8) #9
  %67 = load i32, ptr %11, align 4
  switch i32 %67, label %72 [
    i32 0, label %68
    i32 1, label %70
  ]

68:                                               ; preds = %66
  br label %12, !llvm.loop !54

69:                                               ; preds = %12
  store i8 0, ptr %4, align 1
  br label %70

70:                                               ; preds = %69, %66
  %71 = load i8, ptr %4, align 1
  ret i8 %71

72:                                               ; preds = %66
  unreachable
}