; Function Attrs: mustprogress uwtable
define noundef signext range(i8 0, 2) i8 @_ZN6icu_7710GreekUpper23isFollowedByCasedLetterEPKDsii(ptr noundef readonly captures(none) %0, i32 noundef %1, i32 noundef %2) local_unnamed_addr #0 {
  br label %4

4:                                                ; preds = %26, %3
  %.017 = phi i32 [ %1, %3 ], [ %.219, %26 ]
  %5 = icmp slt i32 %.017, %2
  br i1 %5, label %6, label %.split.loop.exit27

6:                                                ; preds = %4
  %7 = add nsw i32 %.017, 1
  %8 = sext i32 %.017 to i64
  %9 = getelementptr inbounds i16, ptr %0, i64 %8
  %10 = load i16, ptr %9, align 2, !tbaa !14
  %11 = zext i16 %10 to i32
  %12 = and i32 %11, 64512
  %13 = icmp ne i32 %12, 55296
  %.not = icmp eq i32 %7, %2
  %or.cond = select i1 %13, i1 true, i1 %.not
  br i1 %or.cond, label %26, label %14

14:                                               ; preds = %6
  %15 = sext i32 %7 to i64
  %16 = getelementptr inbounds i16, ptr %0, i64 %15
  %17 = load i16, ptr %16, align 2, !tbaa !14
  %18 = zext i16 %17 to i32
  %19 = and i32 %18, 64512
  %20 = icmp eq i32 %19, 56320
  br i1 %20, label %21, label %26

21:                                               ; preds = %14
  %22 = add nsw i32 %.017, 2
  %23 = shl nuw nsw i32 %11, 10
  %24 = add nsw i32 %23, -56613888
  %25 = add nuw nsw i32 %24, %18
  br label %26

26:                                               ; preds = %14, %21, %6
  %.121 = phi i32 [ %11, %6 ], [ %25, %21 ], [ %11, %14 ]
  %.219 = phi i32 [ %7, %6 ], [ %22, %21 ], [ %7, %14 ]
  %27 = tail call i32 @ucase_getTypeOrIgnorable_77(i32 noundef %.121)
  %28 = and i32 %27, 4
  %.not25.not = icmp eq i32 %28, 0
  br i1 %.not25.not, label %.split.loop.exit, label %4

.split.loop.exit:                                 ; preds = %26
  %.not26.le = icmp ne i32 %27, 0
  %..le = zext i1 %.not26.le to i8
  br label %.split.loop.exit27

.split.loop.exit27:                               ; preds = %4, %.split.loop.exit
  %.2 = phi i8 [ %..le, %.split.loop.exit ], [ 0, %4 ]
  ret i8 %.2
}